target datalayout = "e-m:e-p270:32:32-p271:32:32-p272:64:64-i64:64-i128:128-f80:128-n8:16:32:64-S128"
target triple = "x86_64-pc-linux-gnu"

%struct.sharedObjectsStruct = type { ptr, ptr, ptr, ptr, ptr, ptr, ptr, ptr, [4 x ptr], [4 x ptr], [4 x ptr], [4 x ptr], ptr, ptr, ptr, ptr, ptr, ptr, ptr, ptr, ptr, ptr, ptr, ptr, ptr, ptr, ptr, ptr, ptr, ptr, ptr, ptr, ptr, ptr, ptr, ptr, ptr, ptr, ptr, ptr, ptr, ptr, ptr, ptr, ptr, ptr, ptr, ptr, ptr, ptr, ptr, ptr, ptr, ptr, ptr, ptr, ptr, ptr, ptr, ptr, ptr, ptr, ptr, ptr, ptr, ptr, ptr, ptr, ptr, ptr, ptr, ptr, ptr, ptr, ptr, ptr, ptr, ptr, ptr, ptr, ptr, ptr, ptr, ptr, ptr, ptr, ptr, ptr, [10 x ptr], [10000 x ptr], [32 x ptr], [32 x ptr], [32 x ptr], [32 x ptr], ptr, ptr }
%struct.redisServer = type { i32, i64, ptr, ptr, ptr, i32, i32, i32, i32, i32, ptr, ptr, ptr, ptr, ptr, i32, i32, i32, i32, i64, i32, i32, i32, i32, ptr, i32, i32, [41 x i8], i32, i64, i32, i32, i32, ptr, ptr, i32, i32, i64, ptr, ptr, ptr, ptr, [2 x i32], i32, i32, i32, i32, i32, i32, [16 x ptr], i32, ptr, ptr, i32, [8 x %struct.connListener], i32, %struct.connListener, ptr, ptr, ptr, ptr, ptr, ptr, ptr, ptr, ptr, ptr, i32, ptr, i32, ptr, [3 x %struct.pause_event], [256 x i8], ptr, i64, i32, i32, [128 x i32], i32, i32, i64, i32, i32, i32, i32, i32, i64, i64, i64, i64, i64, i64, i64, i64, i64, i64, double, i64, i64, i64, i64, i64, i64, i64, i64, i64, i64, i64, i64, i64, i64, i64, i64, i64, i64, i64, i64, i64, double, i64, i64, i64, i64, i64, ptr, i64, i64, i64, %struct.malloc_stats, i64, i64, i64, i64, i64, i64, i64, i64, i64, i64, i64, i64, double, [4 x i64], i64, i64, i64, i64, [128 x i64], [128 x i64], i64, i64, [7 x %struct.anon], i64, i64, i64, i64, i64, i64, [4 x %struct.durationStats], i32, i32, i32, i32, i32, i32, i32, i32, i32, i32, i32, i32, i64, i32, i32, i32, i32, i64, i64, i32, i32, i32, i32, i32, ptr, [3 x %struct.clientBufferLimitsConfig], i32, i32, i32, ptr, i32, i32, i32, i32, i32, i32, ptr, ptr, i32, i32, i64, i64, i64, i64, i64, i32, i32, ptr, i32, i32, i64, i64, i64, i64, i64, i32, i32, i64, i32, i32, i32, i32, i32, i32, i32, i32, ptr, i32, i64, i64, i64, i64, i32, ptr, i32, ptr, i32, i32, i32, i64, i64, i64, i64, i32, i32, i32, i32, i32, i32, ptr, i32, i32, ptr, i32, i32, i32, [2 x i32], i32, %struct.redisOpArray, i32, ptr, i32, ptr, i32, i32, i32, i32, i32, i32, i32, [41 x i8], [41 x i8], i64, i64, i64, i64, i32, i32, ptr, i64, i64, %struct.replDataBuf, i64, i64, i32, i32, i32, i32, i32, i32, i32, i32, i32, i64, ptr, i64, ptr, ptr, ptr, i32, i32, ptr, ptr, i32, i32, i32, i64, i64, i64, i64, ptr, ptr, i32, ptr, i64, i32, i32, i32, i64, i32, i32, i32, i32, ptr, i32, i32, [41 x i8], i64, i32, ptr, i32, i32, i64, i64, i32, i32, i32, i32, i32, i64, [3 x i32], i32, i32, i32, [10 x i32], ptr, ptr, i32, i64, ptr, ptr, i32, i32, i32, i32, i64, i64, i64, i64, i64, i64, i64, i64, i64, i64, i32, i32, i64, i64, i32, i64, i64, i64, i64, i64, ptr, ptr, i32, ptr, i32, i32, i32, i32, i64, i64, ptr, ptr, i32, i32, i32, i32, i32, ptr, ptr, ptr, i32, i32, i32, i32, i32, i32, i32, i64, i32, i32, i64, i32, i32, i32, i32, i32, i32, i32, i64, ptr, ptr, i64, ptr, i32, %struct.aclInfo, i32, i64, i32, i32, i32, %struct.redisTLSContextConfig, ptr, ptr, ptr, ptr, ptr, i64, i32, ptr, i32, i32, i32, i64, i32, ptr }
%struct.connListener = type { [16 x i32], i32, ptr, i32, i32, ptr, ptr }
%struct.pause_event = type { i32, i64 }
%struct.malloc_stats = type { i64, i64, i64, i64, i64, i64, i64, i64, i64, i64, i64 }
%struct.anon = type { i64, i64, [16 x i64], i32 }
%struct.durationStats = type { i64, i64, i64 }
%struct.clientBufferLimitsConfig = type { i64, i64, i64 }
%struct.redisOpArray = type { ptr, i32, i32 }
%struct.replDataBuf = type { ptr, i64, i64, i64, i64 }
%struct.aclInfo = type { i64, i64, i64, i64 }
%struct.redisTLSContextConfig = type { ptr, ptr, ptr, ptr, ptr, ptr, ptr, ptr, ptr, ptr, ptr, ptr, i32, i32, i32, i32 }
%struct.client = type { i64, i64, ptr, i8, i8, i8, i8, i32, ptr, ptr, ptr, ptr, ptr, i64, i64, i32, ptr, i32, i32, ptr, i64, ptr, ptr, ptr, ptr, ptr, i32, i32, i64, ptr, i64, ptr, i64, i64, i64, i32, ptr, i64, i64, i32, i32, i32, i32, i64, i64, ptr, i64, i64, i64, i64, i64, i64, i64, i64, [41 x i8], i32, ptr, i32, i32, i64, %struct.multiState, %struct.blockingState, i64, ptr, ptr, ptr, ptr, ptr, ptr, ptr, ptr, ptr, ptr, ptr, ptr, ptr, ptr, i64, ptr, i64, i32, ptr, ptr, ptr, i64, %struct.listNode, i64, i64, i32, i64, ptr }
%struct.multiState = type { ptr, i32, i32, i32, i64, i32 }
%struct.blockingState = type { i32, i64, i32, ptr, i32, i32, i64, ptr, ptr, i64 }
%struct.listNode = type { ptr, ptr, ptr }
%struct.redisDb = type { ptr, ptr, ptr, ptr, ptr, ptr, ptr, i32, i64, i64, ptr }
%struct.zrange_result_handler = type { i32, ptr, ptr, ptr, ptr, i32, i32, ptr, ptr, ptr, ptr }

@shared = external global %struct.sharedObjectsStruct, align 8
@server = external global %struct.redisServer, align 8
@.str.30 = private unnamed_addr constant [4 x i8] c"del\00", align 1
@.str.82 = private unnamed_addr constant [12 x i8] c"zrangestore\00", align 1

; Function Attrs: nounwind uwtable
define internal void @zrangeResultFinalizeStore(ptr noundef %0, i64 noundef %1) #0 {
  %3 = alloca ptr, align 8
  %4 = alloca i64, align 8
  store ptr %0, ptr %3, align 8, !tbaa !208
  store i64 %1, ptr %4, align 8, !tbaa !31
  %5 = load i64, ptr %4, align 8, !tbaa !31
  %6 = icmp ne i64 %5, 0
  br i1 %6, label %7, label %38

7:                                                ; preds = %2
  %8 = load ptr, ptr %3, align 8, !tbaa !208
  %9 = getelementptr inbounds nuw %struct.zrange_result_handler, ptr %8, i32 0, i32 1
  %10 = load ptr, ptr %9, align 8, !tbaa !210
  %11 = load ptr, ptr %3, align 8, !tbaa !208
  %12 = getelementptr inbounds nuw %struct.zrange_result_handler, ptr %11, i32 0, i32 1
  %13 = load ptr, ptr %12, align 8, !tbaa !210
  %14 = getelementptr inbounds nuw %struct.client, ptr %13, i32 0, i32 8
  %15 = load ptr, ptr %14, align 8, !tbaa !164
  %16 = load ptr, ptr %3, align 8, !tbaa !208
  %17 = getelementptr inbounds nuw %struct.zrange_result_handler, ptr %16, i32 0, i32 2
  %18 = load ptr, ptr %17, align 8, !tbaa !218
  %19 = load ptr, ptr %3, align 8, !tbaa !208
  %20 = getelementptr inbounds nuw %struct.zrange_result_handler, ptr %19, i32 0, i32 3
  %21 = load ptr, ptr %20, align 8, !tbaa !257
  call void @setKey(ptr noundef %10, ptr noundef %15, ptr noundef %18, ptr noundef %21, i32 noundef 0)
  %22 = load ptr, ptr %3, align 8, !tbaa !208
  %23 = getelementptr inbounds nuw %struct.zrange_result_handler, ptr %22, i32 0, i32 1
  %24 = load ptr, ptr %23, align 8, !tbaa !210
  %25 = load i64, ptr %4, align 8, !tbaa !31
  call void @addReplyLongLong(ptr noundef %24, i64 noundef %25)
  %26 = load ptr, ptr %3, align 8, !tbaa !208
  %27 = getelementptr inbounds nuw %struct.zrange_result_handler, ptr %26, i32 0, i32 2
  %28 = load ptr, ptr %27, align 8, !tbaa !218
  %29 = load ptr, ptr %3, align 8, !tbaa !208
  %30 = getelementptr inbounds nuw %struct.zrange_result_handler, ptr %29, i32 0, i32 1
  %31 = load ptr, ptr %30, align 8, !tbaa !210
  %32 = getelementptr inbounds nuw %struct.client, ptr %31, i32 0, i32 8
  %33 = load ptr, ptr %32, align 8, !tbaa !164
  %34 = getelementptr inbounds nuw %struct.redisDb, ptr %33, i32 0, i32 7
  %35 = load i32, ptr %34, align 8, !tbaa !167
  call void @notifyKeyspaceEvent(i32 noundef 128, ptr noundef @.str.82, ptr noundef %28, i32 noundef %35)
  %36 = load i64, ptr getelementptr inbounds nuw (%struct.redisServer, ptr @server, i32 0, i32 227), align 8, !tbaa !166
  %37 = add nsw i64 %36, 1
  store i64 %37, ptr getelementptr inbounds nuw (%struct.redisServer, ptr @server, i32 0, i32 227), align 8, !tbaa !166
  br label %78

38:                                               ; preds = %2
  %39 = load ptr, ptr %3, align 8, !tbaa !208
  %40 = getelementptr inbounds nuw %struct.zrange_result_handler, ptr %39, i32 0, i32 1
  %41 = load ptr, ptr %40, align 8, !tbaa !210
  %42 = load ptr, ptr getelementptr inbounds nuw (%struct.sharedObjectsStruct, ptr @shared, i32 0, i32 3), align 8, !tbaa !169
  call void @addReply(ptr noundef %41, ptr noundef %42)
  %43 = load ptr, ptr %3, align 8, !tbaa !208
  %44 = getelementptr inbounds nuw %struct.zrange_result_handler, ptr %43, i32 0, i32 1
  %45 = load ptr, ptr %44, align 8, !tbaa !210
  %46 = getelementptr inbounds nuw %struct.client, ptr %45, i32 0, i32 8
  %47 = load ptr, ptr %46, align 8, !tbaa !164
  %48 = load ptr, ptr %3, align 8, !tbaa !208
  %49 = getelementptr inbounds nuw %struct.zrange_result_handler, ptr %48, i32 0, i32 2
  %50 = load ptr, ptr %49, align 8, !tbaa !218
  %51 = call i32 @dbDelete(ptr noundef %47, ptr noundef %50)
  %52 = icmp ne i32 %51, 0
  br i1 %52, label %53, label %77

53:                                               ; preds = %38
  %54 = load ptr, ptr %3, align 8, !tbaa !208
  %55 = getelementptr inbounds nuw %struct.zrange_result_handler, ptr %54, i32 0, i32 1
  %56 = load ptr, ptr %55, align 8, !tbaa !210
  %57 = load ptr, ptr %3, align 8, !tbaa !208
  %58 = getelementptr inbounds nuw %struct.zrange_result_handler, ptr %57, i32 0, i32 1
  %59 = load ptr, ptr %58, align 8, !tbaa !210
  %60 = getelementptr inbounds nuw %struct.client, ptr %59, i32 0, i32 8
  %61 = load ptr, ptr %60, align 8, !tbaa !164
  %62 = load ptr, ptr %3, align 8, !tbaa !208
  %63 = getelementptr inbounds nuw %struct.zrange_result_handler, ptr %62, i32 0, i32 2
  %64 = load ptr, ptr %63, align 8, !tbaa !218
  call void @signalModifiedKey(ptr noundef %56, ptr noundef %61, ptr noundef %64)
  %65 = load ptr, ptr %3, align 8, !tbaa !208
  %66 = getelementptr inbounds nuw %struct.zrange_result_handler, ptr %65, i32 0, i32 2
  %67 = load ptr, ptr %66, align 8, !tbaa !218
  %68 = load ptr, ptr %3, align 8, !tbaa !208
  %69 = getelementptr inbounds nuw %struct.zrange_result_handler, ptr %68, i32 0, i32 1
  %70 = load ptr, ptr %69, align 8, !tbaa !210
  %71 = getelementptr inbounds nuw %struct.client, ptr %70, i32 0, i32 8
  %72 = load ptr, ptr %71, align 8, !tbaa !164
  %73 = getelementptr inbounds nuw %struct.redisDb, ptr %72, i32 0, i32 7
  %74 = load i32, ptr %73, align 8, !tbaa !167
  call void @notifyKeyspaceEvent(i32 noundef 4, ptr noundef @.str.30, ptr noundef %67, i32 noundef %74)
  %75 = load i64, ptr getelementptr inbounds nuw (%struct.redisServer, ptr @server, i32 0, i32 227), align 8, !tbaa !166
  %76 = add nsw i64 %75, 1
  store i64 %76, ptr getelementptr inbounds nuw (%struct.redisServer, ptr @server, i32 0, i32 227), align 8, !tbaa !166
  br label %77

77:                                               ; preds = %53, %38
  br label %78

78:                                               ; preds = %77, %7
  %79 = load ptr, ptr %3, align 8, !tbaa !208
  %80 = getelementptr inbounds nuw %struct.zrange_result_handler, ptr %79, i32 0, i32 3
  %81 = load ptr, ptr %80, align 8, !tbaa !257
  call void @decrRefCount(ptr noundef %81)
  ret void
}