; Function Attrs: nounwind uwtable
define internal void @zrangeResultFinalizeStore(ptr noundef readonly captures(none) %0, i64 noundef %1) #0 {
  %.not = icmp eq i64 %1, 0
  %3 = getelementptr inbounds nuw i8, ptr %0, i64 8
  %4 = load ptr, ptr %3, align 8, !tbaa !194
  br i1 %.not, label %19, label %5

5:                                                ; preds = %2
  %6 = getelementptr inbounds nuw i8, ptr %4, i64 32
  %7 = load ptr, ptr %6, align 8, !tbaa !150
  %8 = getelementptr inbounds nuw i8, ptr %0, i64 16
  %9 = load ptr, ptr %8, align 8, !tbaa !202
  %10 = getelementptr inbounds nuw i8, ptr %0, i64 24
  %11 = load ptr, ptr %10, align 8, !tbaa !229
  tail call void @setKey(ptr noundef %4, ptr noundef %7, ptr noundef %9, ptr noundef %11, i32 noundef 0) #18
  %12 = load ptr, ptr %3, align 8, !tbaa !194
  tail call void @addReplyLongLong(ptr noundef %12, i64 noundef %1) #18
  %13 = load ptr, ptr %8, align 8, !tbaa !202
  %14 = load ptr, ptr %3, align 8, !tbaa !194
  %15 = getelementptr inbounds nuw i8, ptr %14, i64 32
  %16 = load ptr, ptr %15, align 8, !tbaa !150
  %17 = getelementptr inbounds nuw i8, ptr %16, i64 56
  %18 = load i32, ptr %17, align 8, !tbaa !153
  tail call void @notifyKeyspaceEvent(i32 noundef 128, ptr noundef nonnull @.str.82, ptr noundef %13, i32 noundef %18) #18
  br label %.sink.split

19:                                               ; preds = %2
  %20 = load ptr, ptr getelementptr inbounds nuw (i8, ptr @shared, i64 24), align 8, !tbaa !155
  tail call void @addReply(ptr noundef %4, ptr noundef %20) #18
  %21 = load ptr, ptr %3, align 8, !tbaa !194
  %22 = getelementptr inbounds nuw i8, ptr %21, i64 32
  %23 = load ptr, ptr %22, align 8, !tbaa !150
  %24 = getelementptr inbounds nuw i8, ptr %0, i64 16
  %25 = load ptr, ptr %24, align 8, !tbaa !202
  %26 = tail call i32 @dbDelete(ptr noundef %23, ptr noundef %25) #18
  %.not17 = icmp eq i32 %26, 0
  br i1 %.not17, label %40, label %27

27:                                               ; preds = %19
  %28 = load ptr, ptr %3, align 8, !tbaa !194
  %29 = getelementptr inbounds nuw i8, ptr %28, i64 32
  %30 = load ptr, ptr %29, align 8, !tbaa !150
  %31 = load ptr, ptr %24, align 8, !tbaa !202
  tail call void @signalModifiedKey(ptr noundef %28, ptr noundef %30, ptr noundef %31) #18
  %32 = load ptr, ptr %24, align 8, !tbaa !202
  %33 = load ptr, ptr %3, align 8, !tbaa !194
  %34 = getelementptr inbounds nuw i8, ptr %33, i64 32
  %35 = load ptr, ptr %34, align 8, !tbaa !150
  %36 = getelementptr inbounds nuw i8, ptr %35, i64 56
  %37 = load i32, ptr %36, align 8, !tbaa !153
  tail call void @notifyKeyspaceEvent(i32 noundef 4, ptr noundef nonnull @.str.30, ptr noundef %32, i32 noundef %37) #18
  br label %.sink.split

.sink.split:                                      ; preds = %5, %27
  %38 = load i64, ptr getelementptr inbounds nuw (i8, ptr @server, i64 6720), align 8, !tbaa !152
  %39 = add nsw i64 %38, 1
  store i64 %39, ptr getelementptr inbounds nuw (i8, ptr @server, i64 6720), align 8, !tbaa !152
  br label %40

40:                                               ; preds = %.sink.split, %19
  %41 = getelementptr inbounds nuw i8, ptr %0, i64 24
  %42 = load ptr, ptr %41, align 8, !tbaa !229
  tail call void @decrRefCount(ptr noundef %42) #18
  ret void
}